; Function Attrs: nounwind uwtable
define dso_local void @git_attr_set_direction(i32 noundef %0) local_unnamed_addr #1 {
  %2 = tail call i32 @is_bare_repository() #21
  %3 = icmp ne i32 %2, 0
  %4 = icmp ne i32 %0, 2
  %or.cond = and i1 %4, %3
  br i1 %or.cond, label %5, label %6

5:                                                ; preds = %1
  tail call void (ptr, i32, ptr, ...) @BUG_fl(ptr noundef nonnull @.str.4, i32 noundef 685, ptr noundef nonnull @.str.7) #22
  unreachable

6:                                                ; preds = %1
  %7 = load i32, ptr @direction, align 4, !tbaa !22
  %.not = icmp eq i32 %0, %7
  br i1 %.not, label %53, label %8

8:                                                ; preds = %6
  %9 = tail call i32 @pthread_mutex_lock(ptr noundef nonnull getelementptr inbounds nuw (i8, ptr @check_vector, i64 24)) #21
  %10 = load i64, ptr @check_vector, align 8, !tbaa !37
  %.not.i = icmp eq i64 %10, 0
  br i1 %.not.i, label %drop_all_attr_stacks.exit, label %.lr.ph.i

.lr.ph.i:                                         ; preds = %8, %drop_attr_stack.exit.i
  %11 = phi i64 [ %50, %drop_attr_stack.exit.i ], [ %10, %8 ]
  %indvars.iv.i = phi i64 [ %indvars.iv.next.i, %drop_attr_stack.exit.i ], [ 0, %8 ]
  %12 = load ptr, ptr getelementptr inbounds nuw (i8, ptr @check_vector, i64 16), align 8, !tbaa !41
  %13 = getelementptr inbounds nuw ptr, ptr %12, i64 %indvars.iv.i
  %14 = load ptr, ptr %13, align 8, !tbaa !42
  %15 = getelementptr inbounds nuw i8, ptr %14, i64 32
  %16 = load ptr, ptr %15, align 8, !tbaa !57
  %.not5.i.i = icmp eq ptr %16, null
  br i1 %.not5.i.i, label %drop_attr_stack.exit.i, label %.lr.ph.i.i

.lr.ph.i.i:                                       ; preds = %.lr.ph.i, %attr_stack_free.exit.i
  %17 = phi ptr [ %49, %attr_stack_free.exit.i ], [ %16, %.lr.ph.i ]
  %18 = load ptr, ptr %17, align 8, !tbaa !58
  store ptr %18, ptr %15, align 8, !tbaa !57
  %19 = getelementptr inbounds nuw i8, ptr %17, i64 8
  %20 = load ptr, ptr %19, align 8, !tbaa !64
  tail call void @free(ptr noundef %20) #21
  %21 = getelementptr inbounds nuw i8, ptr %17, i64 24
  %22 = load i32, ptr %21, align 8, !tbaa !65
  %.not.i4.i = icmp eq i32 %22, 0
  br i1 %.not.i4.i, label %attr_stack_free.exit.i, label %.lr.ph28.i.i

.lr.ph28.i.i:                                     ; preds = %.lr.ph.i.i
  %23 = getelementptr inbounds nuw i8, ptr %17, i64 32
  br label %24

24:                                               ; preds = %._crit_edge.i.i, %.lr.ph28.i.i
  %indvars.iv.i.i = phi i64 [ 0, %.lr.ph28.i.i ], [ %indvars.iv.next.i.i, %._crit_edge.i.i ]
  %25 = load ptr, ptr %23, align 8, !tbaa !66
  %26 = getelementptr inbounds nuw ptr, ptr %25, i64 %indvars.iv.i.i
  %27 = load ptr, ptr %26, align 8, !tbaa !67
  %28 = getelementptr inbounds nuw i8, ptr %27, i64 32
  %29 = load i64, ptr %28, align 8, !tbaa !31
  %.not30.i.i = icmp eq i64 %29, 0
  br i1 %.not30.i.i, label %._crit_edge.i.i, label %.lr.ph.i5.i

.lr.ph.i5.i:                                      ; preds = %24
  %30 = getelementptr i8, ptr %27, i64 48
  br label %31

31:                                               ; preds = %40, %.lr.ph.i5.i
  %32 = phi i64 [ %29, %.lr.ph.i5.i ], [ %41, %40 ]
  %.02325.i.i = phi i64 [ 0, %.lr.ph.i5.i ], [ %42, %40 ]
  %.idx.i.i = shl nuw nsw i64 %.02325.i.i, 4
  %33 = getelementptr i8, ptr %30, i64 %.idx.i.i
  %34 = load ptr, ptr %33, align 8, !tbaa !33
  %35 = icmp eq ptr %34, @git_attr__true
  %36 = icmp eq ptr %34, @git_attr__false
  %or.cond.i.i = or i1 %35, %36
  %37 = icmp eq ptr %34, null
  %or.cond3.i.i = or i1 %37, %or.cond.i.i
  %38 = icmp eq ptr %34, @git_attr__unknown
  %or.cond5.i.i = or i1 %38, %or.cond3.i.i
  br i1 %or.cond5.i.i, label %40, label %39

39:                                               ; preds = %31
  tail call void @free(ptr noundef %34) #21
  %.pre.i.i = load i64, ptr %28, align 8, !tbaa !31
  br label %40

40:                                               ; preds = %39, %31
  %41 = phi i64 [ %32, %31 ], [ %.pre.i.i, %39 ]
  %42 = add nuw i64 %.02325.i.i, 1
  %43 = icmp ult i64 %42, %41
  br i1 %43, label %31, label %._crit_edge.i.i, !llvm.loop !69

._crit_edge.i.i:                                  ; preds = %40, %24
  tail call void @free(ptr noundef nonnull %27) #21
  %indvars.iv.next.i.i = add nuw nsw i64 %indvars.iv.i.i, 1
  %44 = load i32, ptr %21, align 8, !tbaa !65
  %45 = zext i32 %44 to i64
  %46 = icmp samesign ult i64 %indvars.iv.next.i.i, %45
  br i1 %46, label %24, label %attr_stack_free.exit.i, !llvm.loop !70

attr_stack_free.exit.i:                           ; preds = %._crit_edge.i.i, %.lr.ph.i.i
  %47 = getelementptr inbounds nuw i8, ptr %17, i64 32
  %48 = load ptr, ptr %47, align 8, !tbaa !66
  tail call void @free(ptr noundef %48) #21
  tail call void @free(ptr noundef nonnull %17) #21
  %49 = load ptr, ptr %15, align 8, !tbaa !57
  %.not.i.i = icmp eq ptr %49, null
  br i1 %.not.i.i, label %drop_attr_stack.exit.loopexit.i, label %.lr.ph.i.i, !llvm.loop !61

drop_attr_stack.exit.loopexit.i:                  ; preds = %attr_stack_free.exit.i
  %.pre.i = load i64, ptr @check_vector, align 8, !tbaa !37
  br label %drop_attr_stack.exit.i

drop_attr_stack.exit.i:                           ; preds = %drop_attr_stack.exit.loopexit.i, %.lr.ph.i
  %50 = phi i64 [ %.pre.i, %drop_attr_stack.exit.loopexit.i ], [ %11, %.lr.ph.i ]
  %indvars.iv.next.i = add nuw nsw i64 %indvars.iv.i, 1
  %51 = icmp ugt i64 %50, %indvars.iv.next.i
  br i1 %51, label %.lr.ph.i, label %drop_all_attr_stacks.exit, !llvm.loop !71

drop_all_attr_stacks.exit:                        ; preds = %drop_attr_stack.exit.i, %8
  %52 = tail call i32 @pthread_mutex_unlock(ptr noundef nonnull getelementptr inbounds nuw (i8, ptr @check_vector, i64 24)) #21
  br label %53

53:                                               ; preds = %drop_all_attr_stacks.exit, %6
  store i32 %0, ptr @direction, align 4, !tbaa !22
  ret void
}